; Function Attrs: cold nofree nounwind uwtable
define internal void @graph_report(ptr noundef readonly captures(none) %0, ...) unnamed_addr #14 {
  %2 = alloca [1 x %struct.__va_list_tag], align 16
  call void @llvm.lifetime.start.p0(i64 24, ptr nonnull %2) #24
  store i32 1, ptr @verify_commit_graph_error, align 4, !tbaa !47
  call void @llvm.va_start.p0(ptr nonnull %2)
  %3 = load ptr, ptr @stderr, align 8, !tbaa !291
  %4 = call i32 @vfprintf(ptr noundef %3, ptr noundef %0, ptr noundef nonnull %2) #29
  %5 = load ptr, ptr @stderr, align 8, !tbaa !291
  %fputc = call i32 @fputc(i32 10, ptr %5)
  call void @llvm.va_end.p0(ptr nonnull %2)
  call void @llvm.lifetime.end.p0(i64 24, ptr nonnull %2) #24
  ret void
}